; Function Attrs: mustprogress nounwind uwtable
define void @_ZN5arrow2io15SlowInputStreamD2Ev(ptr noundef nonnull align 8 dereferenceable(40) initializes((0, 8)) %0, ptr noundef readonly captures(none) %1) unnamed_addr #5 align 2 personality ptr @__gxx_personality_v0 {
  %3 = load ptr, ptr %1, align 8
  store ptr %3, ptr %0, align 8, !tbaa !3
  %4 = getelementptr inbounds nuw i8, ptr %1, i64 56
  %5 = load ptr, ptr %4, align 8
  %6 = getelementptr i8, ptr %3, i64 -56
  %7 = load i64, ptr %6, align 8
  %8 = getelementptr inbounds i8, ptr %0, i64 %7
  store ptr %5, ptr %8, align 8, !tbaa !3
  %9 = getelementptr inbounds nuw i8, ptr %1, i64 64
  %10 = load ptr, ptr %9, align 8
  %11 = load ptr, ptr %0, align 8, !tbaa !3
  %12 = getelementptr i8, ptr %11, i64 -64
  %13 = load i64, ptr %12, align 8
  %14 = getelementptr inbounds i8, ptr %0, i64 %13
  store ptr %10, ptr %14, align 8, !tbaa !3
  %15 = load ptr, ptr %0, align 8, !tbaa !3
  %16 = getelementptr i8, ptr %15, i64 -56
  %17 = load i64, ptr %16, align 8
  %18 = getelementptr inbounds i8, ptr %0, i64 %17
  invoke void @_ZN5arrow2io8internal19CloseFromDestructorEPNS0_13FileInterfaceE(ptr noundef nonnull %18)
          to label %19 unwind label %79

19:                                               ; preds = %2
  %20 = getelementptr inbounds nuw i8, ptr %1, i64 8
  %21 = load ptr, ptr %20, align 8
  store ptr %21, ptr %0, align 8, !tbaa !3
  %22 = getelementptr inbounds nuw i8, ptr %1, i64 40
  %23 = load ptr, ptr %22, align 8
  %24 = getelementptr i8, ptr %21, i64 -56
  %25 = load i64, ptr %24, align 8
  %26 = getelementptr inbounds i8, ptr %0, i64 %25
  store ptr %23, ptr %26, align 8, !tbaa !3
  %27 = getelementptr inbounds nuw i8, ptr %1, i64 48
  %28 = load ptr, ptr %27, align 8
  %29 = load ptr, ptr %0, align 8, !tbaa !3
  %30 = getelementptr i8, ptr %29, i64 -64
  %31 = load i64, ptr %30, align 8
  %32 = getelementptr inbounds i8, ptr %0, i64 %31
  store ptr %28, ptr %32, align 8, !tbaa !3
  %33 = getelementptr inbounds nuw i8, ptr %0, i64 32
  %34 = load ptr, ptr %33, align 8, !tbaa !37
  %.not.i.i.i = icmp eq ptr %34, null
  br i1 %.not.i.i.i, label %_ZNSt12__shared_ptrIN5arrow2io16LatencyGeneratorELN9__gnu_cxx12_Lock_policyE2EED2Ev.exit.i, label %35

35:                                               ; preds = %19
  %36 = getelementptr inbounds nuw i8, ptr %34, i64 8
  %37 = load atomic i64, ptr %36 acquire, align 8
  %38 = icmp eq i64 %37, 4294967297
  %39 = trunc i64 %37 to i32
  br i1 %38, label %40, label %48

40:                                               ; preds = %35
  store i32 0, ptr %36, align 8, !tbaa !18
  %41 = getelementptr inbounds nuw i8, ptr %34, i64 12
  store i32 0, ptr %41, align 4, !tbaa !20
  %42 = load ptr, ptr %34, align 8, !tbaa !3
  %43 = getelementptr inbounds nuw i8, ptr %42, i64 16
  %44 = load ptr, ptr %43, align 8
  tail call void %44(ptr noundef nonnull align 8 dereferenceable(16) %34) #25
  %45 = load ptr, ptr %34, align 8, !tbaa !3
  %46 = getelementptr inbounds nuw i8, ptr %45, i64 24
  %47 = load ptr, ptr %46, align 8
  tail call void %47(ptr noundef nonnull align 8 dereferenceable(16) %34) #25
  br label %_ZNSt12__shared_ptrIN5arrow2io16LatencyGeneratorELN9__gnu_cxx12_Lock_policyE2EED2Ev.exit.i

48:                                               ; preds = %35
  %49 = load i8, ptr @__libc_single_threaded, align 1, !tbaa !41
  %.not.i.i.i.i = icmp eq i8 %49, 0
  br i1 %.not.i.i.i.i, label %52, label %50

50:                                               ; preds = %48
  %51 = add nsw i32 %39, -1
  store i32 %51, ptr %36, align 4, !tbaa !11
  br label %_ZN9__gnu_cxx27__exchange_and_add_dispatchEPii.exit.i.i.i.i

52:                                               ; preds = %48
  %53 = atomicrmw volatile add ptr %36, i32 -1 acq_rel, align 4
  br label %_ZN9__gnu_cxx27__exchange_and_add_dispatchEPii.exit.i.i.i.i

_ZN9__gnu_cxx27__exchange_and_add_dispatchEPii.exit.i.i.i.i: ; preds = %52, %50
  %.0.i.i.i.i.i = phi i32 [ %39, %50 ], [ %53, %52 ]
  %54 = icmp eq i32 %.0.i.i.i.i.i, 1
  br i1 %54, label %55, label %_ZNSt12__shared_ptrIN5arrow2io16LatencyGeneratorELN9__gnu_cxx12_Lock_policyE2EED2Ev.exit.i, !prof !42

55:                                               ; preds = %_ZN9__gnu_cxx27__exchange_and_add_dispatchEPii.exit.i.i.i.i
  tail call void @_ZNSt16_Sp_counted_baseILN9__gnu_cxx12_Lock_policyE2EE24_M_release_last_use_coldEv(ptr noundef nonnull align 8 dereferenceable(16) %34) #25
  br label %_ZNSt12__shared_ptrIN5arrow2io16LatencyGeneratorELN9__gnu_cxx12_Lock_policyE2EED2Ev.exit.i

_ZNSt12__shared_ptrIN5arrow2io16LatencyGeneratorELN9__gnu_cxx12_Lock_policyE2EED2Ev.exit.i: ; preds = %55, %_ZN9__gnu_cxx27__exchange_and_add_dispatchEPii.exit.i.i.i.i, %40, %19
  %56 = getelementptr inbounds nuw i8, ptr %0, i64 16
  %57 = load ptr, ptr %56, align 8, !tbaa !37
  %.not.i.i2.i = icmp eq ptr %57, null
  br i1 %.not.i.i2.i, label %_ZN5arrow2io19SlowInputStreamBaseINS0_11InputStreamEED2Ev.exit, label %58

58:                                               ; preds = %_ZNSt12__shared_ptrIN5arrow2io16LatencyGeneratorELN9__gnu_cxx12_Lock_policyE2EED2Ev.exit.i
  %59 = getelementptr inbounds nuw i8, ptr %57, i64 8
  %60 = load atomic i64, ptr %59 acquire, align 8
  %61 = icmp eq i64 %60, 4294967297
  %62 = trunc i64 %60 to i32
  br i1 %61, label %63, label %71

63:                                               ; preds = %58
  store i32 0, ptr %59, align 8, !tbaa !18
  %64 = getelementptr inbounds nuw i8, ptr %57, i64 12
  store i32 0, ptr %64, align 4, !tbaa !20
  %65 = load ptr, ptr %57, align 8, !tbaa !3
  %66 = getelementptr inbounds nuw i8, ptr %65, i64 16
  %67 = load ptr, ptr %66, align 8
  tail call void %67(ptr noundef nonnull align 8 dereferenceable(16) %57) #25
  %68 = load ptr, ptr %57, align 8, !tbaa !3
  %69 = getelementptr inbounds nuw i8, ptr %68, i64 24
  %70 = load ptr, ptr %69, align 8
  tail call void %70(ptr noundef nonnull align 8 dereferenceable(16) %57) #25
  br label %_ZN5arrow2io19SlowInputStreamBaseINS0_11InputStreamEED2Ev.exit

71:                                               ; preds = %58
  %72 = load i8, ptr @__libc_single_threaded, align 1, !tbaa !41
  %.not.i.i.i3.i = icmp eq i8 %72, 0
  br i1 %.not.i.i.i3.i, label %75, label %73

73:                                               ; preds = %71
  %74 = add nsw i32 %62, -1
  store i32 %74, ptr %59, align 4, !tbaa !11
  br label %_ZN9__gnu_cxx27__exchange_and_add_dispatchEPii.exit.i.i.i4.i

75:                                               ; preds = %71
  %76 = atomicrmw volatile add ptr %59, i32 -1 acq_rel, align 4
  br label %_ZN9__gnu_cxx27__exchange_and_add_dispatchEPii.exit.i.i.i4.i

_ZN9__gnu_cxx27__exchange_and_add_dispatchEPii.exit.i.i.i4.i: ; preds = %75, %73
  %.0.i.i.i.i5.i = phi i32 [ %62, %73 ], [ %76, %75 ]
  %77 = icmp eq i32 %.0.i.i.i.i5.i, 1
  br i1 %77, label %78, label %_ZN5arrow2io19SlowInputStreamBaseINS0_11InputStreamEED2Ev.exit, !prof !42

78:                                               ; preds = %_ZN9__gnu_cxx27__exchange_and_add_dispatchEPii.exit.i.i.i4.i
  tail call void @_ZNSt16_Sp_counted_baseILN9__gnu_cxx12_Lock_policyE2EE24_M_release_last_use_coldEv(ptr noundef nonnull align 8 dereferenceable(16) %57) #25
  br label %_ZN5arrow2io19SlowInputStreamBaseINS0_11InputStreamEED2Ev.exit

_ZN5arrow2io19SlowInputStreamBaseINS0_11InputStreamEED2Ev.exit: ; preds = %_ZNSt12__shared_ptrIN5arrow2io16LatencyGeneratorELN9__gnu_cxx12_Lock_policyE2EED2Ev.exit.i, %63, %_ZN9__gnu_cxx27__exchange_and_add_dispatchEPii.exit.i.i.i4.i, %78
  ret void

79:                                               ; preds = %2
  %80 = landingpad { ptr, i32 }
          catch ptr null
  %81 = extractvalue { ptr, i32 } %80, 0
  tail call void @__clang_call_terminate(ptr %81) #24
  unreachable
}